; Function Attrs: mustprogress nounwind uwtable
define hidden noundef zeroext i1 @_ZNK4cvc58internal14WallClockTimer7expiredEv(ptr noundef nonnull readonly align 8 captures(none) dereferenceable(16) %0) local_unnamed_addr #5 align 2 {
  %2 = getelementptr inbounds nuw i8, ptr %0, i64 8
  %.sroa.0.0.copyload.i.i = load i64, ptr %2, align 8, !tbaa !3
  %.not = icmp eq i64 %.sroa.0.0.copyload.i.i, 0
  br i1 %.not, label %6, label %3

3:                                                ; preds = %1
  %4 = tail call i64 @_ZNSt6chrono3_V212system_clock3nowEv() #28
  %.sroa.0.0.copyload.i2.i.i = load i64, ptr %2, align 8, !tbaa !3
  %5 = icmp sge i64 %4, %.sroa.0.0.copyload.i2.i.i
  br label %6

6:                                                ; preds = %1, %3
  %.0 = phi i1 [ %5, %3 ], [ false, %1 ]
  ret i1 %.0
}